     1                                  ;****************************************************************************************************************************
     2                                  ;Program name: "Rectangle".  This program takes in the user input of height and width in float and calculates perimeter and average side length. Copyright (C) 2021 Johnson Tong.                                                                           *
     3                                  ;                                                                                                                           *
     4                                  ;This file is part of the software program "Rectangle".                                                                   *
     5                                  ;Rectangle is free software: you can redistribute it and/or modify it under the terms of the GNU General Public License   *
     6                                  ;version 3 as published by the Free Software Foundation.                                                                    *
     7                                  ;Rectangle is distributed in the hope that it will be useful, but WITHOUT ANY WARRANTY; without even the implied          *
     8                                  ;warranty of MERCHANTABILITY or FITNESS FOR A PARTICULAR PURPOSE.  See the GNU General Public License for more details.     *
     9                                  ;A copy of the GNU General Public License v3 is available here:  <https:;www.gnu.org/licenses/>.                            *
    10                                  ;****************************************************************************************************************************
    11                                  
    12                                  
    13                                  
    14                                  
    15                                  ;========1=========2=========3=========4=========5=========6=========7=========8=========9=========0=========1=========2=========3**
    16                                  ;
    17                                  ;Author information
    18                                  ;  Author name: Johnson Tong
    19                                  ;  Author email: jt28@csu.fullerton.edu
    20                                  ;
    21                                  ;Program information
    22                                  ;  Program name: Rectangle
    23                                  ;  Programming languages: One modules in C and one module in X86
    24                                  ;  Date program began: 2021 Feb 05
    25                                  ;  Date of last update: 2021 Feb 12
    26                                  ;
    27                                  ;  Files in this program: rectangle.c, perimeter.asm
    28                                  ;  Status: Finished.
    29                                  ;
    30                                  ;This file
    31                                  ;   File name: perimeter.asm
    32                                  ;   Language: X86 with Intel syntax.
    33                                  ;   Max page width: 132 columns
    34                                  ;   Assemble: nasm -f elf64 -l perimeter.lis -o perimeter.o perimeter.asm
    35                                  
    36                                  ;===== Begin code area ================================================================================================
    37                                  
    38                                  extern printf
    39                                  extern scanf
    40                                  global perimeter
    41                                  
    42                                  segment .data
    43 00000000 57656C636F6D652074-     welcome db "Welcome to a friendly assembly program by Johnson Tong",10,0
    43 00000009 6F206120667269656E-
    43 00000012 646C7920617373656D-
    43 0000001B 626C792070726F6772-
    43 00000024 616D206279204A6F68-
    43 0000002D 6E736F6E20546F6E67-
    43 00000036 0A00               
    44 00000038 546869732070726F67-     welcome2 db "This program will compute the perimeter and the average side length of a rectangle.", 10, 0
    44 00000041 72616D2077696C6C20-
    44 0000004A 636F6D707574652074-
    44 00000053 686520706572696D65-
    44 0000005C 74657220616E642074-
    44 00000065 686520617665726167-
    44 0000006E 652073696465206C65-
    44 00000077 6E677468206F662061-
    44 00000080 2072656374616E676C-
    44 00000089 652E0A00           
    45                                  
    46 0000008D 456E74657220746865-     input1prompt db "Enter the height: ",0
    46 00000096 206865696768743A20-
    46 0000009F 00                 
    47 000000A0 456E74657220746865-     input2prompt db "Enter the width: ", 0
    47 000000A9 2077696474683A2000 
    48                                  
    49 000000B2 256C6600                one_float_format db "%lf",0
    50 000000B6 256C6620256C662025-     three_float_format db "%lf %lf %lf", 0
    50 000000BF 6C6600             
    51                                  
    52 000000C2 54686520706572696D-     output_perimeter_float db "The perimeter is %.15lf.",10,0
    52 000000CB 657465722069732025-
    52 000000D4 2E31356C662E0A00   
    53 000000DC 546865206C656E6774-     output_average_float db "The length of the average side is %.15lf.", 10, 0
    53 000000E5 68206F662074686520-
    53 000000EE 617665726167652073-
    53 000000F7 69646520697320252E-
    53 00000100 31356C662E0A00     
    54                                  
    55 00000107 4920686F706520796F-     goodbye db "I hope you enjoyed your rectangle.",10,0
    55 00000110 7520656E6A6F796564-
    55 00000119 20796F757220726563-
    55 00000122 74616E676C652E0A00 
    56 0000012B 54686520617373656D-     goodbye2 db "The assembly program will send the perimeter to the main function.", 10,0
    56 00000134 626C792070726F6772-
    56 0000013D 616D2077696C6C2073-
    56 00000146 656E64207468652070-
    56 0000014F 6572696D6574657220-
    56 00000158 746F20746865206D61-
    56 00000161 696E2066756E637469-
    56 0000016A 6F6E2E0A00         
    57 0000016F 257300                  one_string_format db "%s", 0
    58                                  
    59 00000172 476F6F64206D6F726E-     welcome_output db "Good morning %s", 10,0
    59 0000017B 696E672025730A00   
    60                                  
    61 00000183 0000000000001040        four dq 4.0
    62                                  
    63                                  segment .bss
    64                                  
    65                                  segment .text
    66                                  
    67                                  perimeter:
    68                                  ;Prolog ===== Insurance for any caller of this assembly module ========================================================
    69                                  ;Any future program calling this module that the data in the caller's GPRs will not be modified.
    70 00000000 55                      push rbp
    71 00000001 4889E5                  mov  rbp,rsp
    72 00000004 57                      push rdi                                                    ;Backup rdi
    73 00000005 56                      push rsi                                                    ;Backup rsi
    74 00000006 52                      push rdx                                                    ;Backup rdx
    75 00000007 51                      push rcx                                                    ;Backup rcx
    76 00000008 4150                    push r8                                                     ;Backup r8
    77 0000000A 4151                    push r9                                                     ;Backup r9
    78 0000000C 4152                    push r10                                                    ;Backup r10
    79 0000000E 4153                    push r11                                                    ;Backup r11
    80 00000010 4154                    push r12                                                    ;Backup r12
    81 00000012 4155                    push r13                                                    ;Backup r13
    82 00000014 4156                    push r14                                                    ;Backup r14
    83 00000016 4157                    push r15                                                    ;Backup r15
    84 00000018 53                      push rbx                                                    ;Backup rbx
    85 00000019 9C                      pushf                                                       ;Backup rflags
    86                                  
    87                                  ;Registers rax, rip, and rsp are usually not backed up.
    88 0000001A 6A00                    push qword 0
    89                                  ; Display the welcome messages
    90 0000001C B800000000              mov rax, 0                  ;printf uses no data from xmm registers
    91 00000021 48BF-                   mov rdi, welcome            ;"Welcome to a friendly assembly program by Johnson Tong"
    91 00000023 [0000000000000000] 
    92 0000002B E8(00000000)            call printf
    93                                  
    94 00000030 6A00                    push qword 0
    95                                  
    96 00000032 4881EC00040000          sub rsp, 1024 ; make space for 1 string
    97 00000039 B800000000              mov rax, 0
    98 0000003E 48BF-                   mov rdi, one_string_format
    98 00000040 [6F01000000000000] 
    99 00000048 4889E6                  mov rsi, rsp
   100 0000004B 4889E2                  mov rdx, rsp
   101 0000004E 4881C200040000          add rdx, 1024
   102 00000055 E8(00000000)            call scanf
   103                                  
   104 0000005A B800000000              mov rax, 0
   105 0000005F 48BF-                   mov rdi, welcome_output
   105 00000061 [7201000000000000] 
   106 00000069 4889E6                  mov rsi, rsp
   107 0000006C E8(00000000)            call printf
   108                                  
   109 00000071 4881C400040000          add rsp, 1024
   110 00000078 58                      pop rax
   111                                  
   112 00000079 6A00                    push qword 0
   113 0000007B B800000000              mov rax, 0
   114 00000080 48BF-                   mov rdi, welcome2
   114 00000082 [3800000000000000] 
   115 0000008A E8(00000000)            call printf
   116 0000008F 58                      pop rax
   117                                  
   118                                      ; push qword 0 ; just pretend this isn't here
   119                                  	
   120 00000090 6A00                    	push qword 0 ; push 8 bytes to top of stack for storage
   121 00000092 6A00                    	push qword 0
   122 00000094 6A00                    	push qword 0
   123                                  	
   124 00000096 48BF-                   	mov rdi, three_float_format ; move float format into first parameter register // rdi = "%lf %lf %lf"
   124 00000098 [B600000000000000] 
   125 000000A0 4889E6                  	mov rsi, rsp ; <- second arg register now points to top of stack
   126 000000A3 4889E2                  	mov rdx, rsp
   127 000000A6 4883C208                	add rdx, qword 8 ; rdx points to second qword
   128 000000AA 4889E1                  	mov rcx, rsp
   129 000000AD 4883C110                	add rcx, qword 16 ; rcx points to third qword
   130 000000B1 E8(00000000)            	call scanf ; scanf("%lf %lf %lf", rsp, rsp + 8, rsp + 16);
   131                                  	
   132 000000B6 F2440F103C24            	movsd xmm15, [rsp+0] ; dereference the data at the top of stack, store in xmm15 
   133 000000BC F2440F10742408          	movsd xmm14, [rsp+8]
   134 000000C3 F2440F106C2410          	movsd xmm13, [rsp+16]
   135                                  	
   136                                  	; [ ] are equivalent to *dereference in c++
   137                                  	
   138 000000CA 58                      	pop rax ; restore stack, i.e. since we're done with the 8 bytes at the top, remove them
   139                                  	
   140                                  	; for the actual numbers
   141 000000CB 58                      	pop rax
   142 000000CC 58                      	pop rax 
   143                                  	; pop rax
   144                                  
   145                                  ;=========begin inputs for height and width===================
   146 000000CD 6A00                    push qword 0
   147                                  ;Display a prompt message asking for inputs
   148 000000CF B800000000              mov rax, 0
   149 000000D4 48BF-                   mov rdi, input1prompt         ;"Enter the height: "
   149 000000D6 [8D00000000000000] 
   150 000000DE E8(00000000)            call printf
   151 000000E3 58                      pop rax
   152                                  
   153                                  ;Begin the scanf block
   154 000000E4 6A00                    push qword 0
   155 000000E6 B801000000              mov rax, 1
   156 000000EB 48BF-                   mov rdi, one_float_format
   156 000000ED [B200000000000000] 
   157 000000F5 4889E6                  mov rsi, rsp
   158 000000F8 E8(00000000)            call scanf
   159 000000FD F2440F101424            movsd xmm10, [rsp]
   160 00000103 58                      pop rax
   161                                  
   162 00000104 6A00                    push qword 0
   163                                  ;Display a prompt message asking for inputs
   164 00000106 B800000000              mov rax, 0
   165 0000010B 48BF-                   mov rdi, input2prompt       ; "Enter the width: "
   165 0000010D [A000000000000000] 
   166 00000115 E8(00000000)            call printf
   167 0000011A 58                      pop rax
   168                                  
   169                                  ;Begin the scanf block
   170 0000011B 6A00                    push qword 0
   171 0000011D B801000000              mov rax, 1
   172 00000122 48BF-                   mov rdi, one_float_format
   172 00000124 [B200000000000000] 
   173 0000012C 4889E6                  mov rsi, rsp
   174 0000012F E8(00000000)            call scanf
   175 00000134 F2440F101C24            movsd xmm11, [rsp]
   176 0000013A 58                      pop rax
   177                                  
   178                                  
   179                                  
   180                                  ;=================Calculate perimeter=====================
   181 0000013B F2450F10E2              movsd xmm12, xmm10             ; preserve the height
   182 00000140 F2450F10EB              movsd xmm13, xmm11             ; preserve the width
   183 00000145 F2450F58E3              addsd xmm12, xmm11
   184 0000014A F2450F58EA              addsd xmm13, xmm10
   185 0000014F F2450F58E5              addsd xmm12, xmm13
   186                                  
   187 00000154 6A00                    push qword 0
   188 00000156 B801000000              mov rax, 1
   189 0000015B F2410F10C4              movsd xmm0, xmm12
   190 00000160 48BF-                   mov rdi, output_perimeter_float    ;"The perimeter is %.3lf."
   190 00000162 [C200000000000000] 
   191 0000016A E8(00000000)            call printf
   192 0000016F 58                      pop rax
   193                                  
   194 00000170 F2450F10FC              movsd xmm15, xmm12                  ;save the perimeter before modifying
   195                                  ;=================Calculate average=======================
   196                                  ; two alternative ways to do the average
   197 00000175 F2440F5E2425-           divsd xmm12, [four]
   197 0000017B [83010000]         
   198                                  ; mov r8, 4
   199                                  ; cvtsi2sd xmm13, r8
   200                                  ; divsd xmm12, xmm13
   201                                  
   202 0000017F 6A00                    push qword 0
   203 00000181 B801000000              mov rax, 1
   204 00000186 F2410F10C4              movsd xmm0, xmm12
   205 0000018B 48BF-                   mov rdi, output_average_float     ;"The length of the average side is %.3lf"
   205 0000018D [DC00000000000000] 
   206 00000195 E8(00000000)            call printf
   207 0000019A 58                      pop rax
   208                                  
   209 0000019B 6A00                    push qword 0
   210 0000019D B800000000              mov rax, 0
   211 000001A2 48BF-                   mov rdi, goodbye       ; "I hope you enjoyed your rectangle."
   211 000001A4 [0701000000000000] 
   212 000001AC E8(00000000)            call printf
   213 000001B1 58                      pop rax
   214                                  
   215 000001B2 6A00                    push qword 0
   216 000001B4 B800000000              mov rax, 0
   217 000001B9 48BF-                   mov rdi, goodbye2       ; "The assembly program will send the perimeter to the main function."
   217 000001BB [2B01000000000000] 
   218 000001C3 E8(00000000)            call printf
   219 000001C8 58                      pop rax
   220                                  
   221 000001C9 58                      pop rax
   222                                  
   223 000001CA F2410F10C7              movsd xmm0, xmm15
   224                                  ;===== Restore original values to integer registers ===================================================================
   225 000001CF 9D                      popf                                                        ;Restore rflags
   226 000001D0 5B                      pop rbx                                                     ;Restore rbx
   227 000001D1 415F                    pop r15                                                     ;Restore r15
   228 000001D3 415E                    pop r14                                                     ;Restore r14
   229 000001D5 415D                    pop r13                                                     ;Restore r13
   230 000001D7 415C                    pop r12                                                     ;Restore r12
   231 000001D9 415B                    pop r11                                                     ;Restore r11
   232 000001DB 415A                    pop r10                                                     ;Restore r10
   233 000001DD 4159                    pop r9                                                      ;Restore r9
   234 000001DF 4158                    pop r8                                                      ;Restore r8
   235 000001E1 59                      pop rcx                                                     ;Restore rcx
   236 000001E2 5A                      pop rdx                                                     ;Restore rdx
   237 000001E3 5E                      pop rsi                                                     ;Restore rsi
   238 000001E4 5F                      pop rdi                                                     ;Restore rdi
   239 000001E5 5D                      pop rbp                                                     ;Restore rbp
   240                                  
   241 000001E6 C3                      ret
